; Function Attrs: mustprogress uwtable
define noundef i32 @_ZN3zmq22socks_choice_decoder_t5inputEi(ptr noundef nonnull align 8 dereferenceable(16) %0, i32 noundef %1) local_unnamed_addr #3 align 2 {
  %3 = getelementptr inbounds nuw i8, ptr %0, i64 8
  %4 = load i64, ptr %3, align 8, !tbaa !17
  %5 = icmp ugt i64 %4, 1
  br i1 %5, label %6, label %11, !prof !19

6:                                                ; preds = %2
  %7 = load ptr, ptr @stderr, align 8, !tbaa !20
  %8 = tail call i32 (ptr, ptr, ...) @fprintf(ptr noundef %7, ptr noundef nonnull @.str, ptr noundef nonnull @.str.1, ptr noundef nonnull @.str.2, i32 noundef 77) #13
  %9 = load ptr, ptr @stderr, align 8, !tbaa !20
  %10 = tail call i32 @fflush(ptr noundef %9)
  tail call void @_ZN3zmq9zmq_abortEPKc(ptr noundef nonnull @.str.1)
  %.pre = load i64, ptr %3, align 8, !tbaa !17
  br label %11

11:                                               ; preds = %2, %6
  %12 = phi i64 [ %4, %2 ], [ %.pre, %6 ]
  %13 = getelementptr inbounds nuw i8, ptr %0, i64 %12
  %14 = sub i64 2, %12
  %15 = tail call noundef i32 @_ZN3zmq8tcp_readEiPvm(i32 noundef %1, ptr noundef nonnull %13, i64 noundef %14)
  %16 = icmp sgt i32 %15, 0
  br i1 %16, label %17, label %22

17:                                               ; preds = %11
  %18 = zext nneg i32 %15 to i64
  %19 = load i64, ptr %3, align 8, !tbaa !17
  %20 = add i64 %19, %18
  store i64 %20, ptr %3, align 8, !tbaa !17
  %21 = load i8, ptr %0, align 8, !tbaa !8
  %.not = icmp eq i8 %21, 5
  br i1 %.not, label %22, label %23

22:                                               ; preds = %17, %11
  br label %23

23:                                               ; preds = %17, %22
  %.0 = phi i32 [ %15, %22 ], [ -1, %17 ]
  ret i32 %.0
}